target datalayout = "e-m:e-p270:32:32-p271:32:32-p272:64:64-i64:64-i128:128-f80:128-n8:16:32:64-S128"
target triple = "x86_64-unknown-linux-gnu"

@stdscr = external global ptr, align 8
@COLS = external global i32, align 4
@LINES = external global i32, align 4
@px = internal global i32 0, align 4
@sminx = internal global i32 0, align 4
@py = internal global i32 0, align 4
@sminy = internal global i32 0, align 4

; Function Attrs: nounwind sspstrong uwtable
define internal void @curses_cursor_position(ptr noundef %dcl, i32 noundef %x, i32 noundef %y) #0 {
entry:
  %dcl.addr = alloca ptr, align 8
  %x.addr = alloca i32, align 4
  %y.addr = alloca i32, align 4
  store ptr %dcl, ptr %dcl.addr, align 8
  store i32 %x, ptr %x.addr, align 4
  store i32 %y, ptr %y.addr, align 4
  %0 = load i32, ptr %x.addr, align 4
  %cmp = icmp sge i32 %0, 0
  br i1 %cmp, label %if.then, label %if.end15

if.then:                                          ; preds = %entry
  %1 = load i32, ptr @sminx, align 4
  %2 = load i32, ptr %x.addr, align 4
  %add = add i32 %1, %2
  %3 = load i32, ptr @px, align 4
  %sub = sub i32 %add, %3
  store i32 %sub, ptr %x.addr, align 4
  %4 = load i32, ptr @sminy, align 4
  %5 = load i32, ptr %y.addr, align 4
  %add1 = add i32 %4, %5
  %6 = load i32, ptr @py, align 4
  %sub2 = sub i32 %add1, %6
  store i32 %sub2, ptr %y.addr, align 4
  %7 = load i32, ptr %x.addr, align 4
  %cmp3 = icmp sge i32 %7, 0
  br i1 %cmp3, label %land.lhs.true, label %if.end14

land.lhs.true:                                    ; preds = %if.then
  %8 = load i32, ptr %y.addr, align 4
  %cmp4 = icmp sge i32 %8, 0
  br i1 %cmp4, label %land.lhs.true5, label %if.end14

land.lhs.true5:                                   ; preds = %land.lhs.true
  %9 = load i32, ptr %x.addr, align 4
  %10 = load i32, ptr @COLS, align 4
  %cmp6 = icmp slt i32 %9, %10
  br i1 %cmp6, label %land.lhs.true7, label %if.end14

land.lhs.true7:                                   ; preds = %land.lhs.true5
  %11 = load i32, ptr %y.addr, align 4
  %12 = load i32, ptr @LINES, align 4
  %cmp8 = icmp slt i32 %11, %12
  br i1 %cmp8, label %if.then9, label %if.end14

if.then9:                                         ; preds = %land.lhs.true7
  %13 = load ptr, ptr @stdscr, align 8
  %14 = load i32, ptr %y.addr, align 4
  %15 = load i32, ptr %x.addr, align 4
  %call = call i32 @wmove(ptr noundef %13, i32 noundef %14, i32 noundef %15)
  %call10 = call i32 @curs_set(i32 noundef 1)
  %call11 = call zeroext i1 @qemu_console_is_graphic(ptr noundef null)
  br i1 %call11, label %if.end, label %if.then12

if.then12:                                        ; preds = %if.then9
  %call13 = call i32 @curs_set(i32 noundef 2)
  br label %if.end

if.end:                                           ; preds = %if.then12, %if.then9
  br label %return

if.end14:                                         ; preds = %land.lhs.true7, %land.lhs.true5, %land.lhs.true, %if.then
  br label %if.end15

if.end15:                                         ; preds = %if.end14, %entry
  %call16 = call i32 @curs_set(i32 noundef 0)
  br label %return

return:                                           ; preds = %if.end15, %if.end
  ret void
}