; Function Attrs: nounwind sspstrong uwtable
define internal void @curses_cursor_position(ptr readnone captures(none) %dcl, i32 noundef %x, i32 noundef %y) #0 {
entry:
  %cmp = icmp sgt i32 %x, -1
  br i1 %cmp, label %if.then, label %return.sink.split

if.then:                                          ; preds = %entry
  %0 = load i32, ptr @sminx, align 4
  %add = add i32 %0, %x
  %1 = load i32, ptr @px, align 4
  %sub = sub i32 %add, %1
  %2 = load i32, ptr @sminy, align 4
  %add1 = add i32 %2, %y
  %3 = load i32, ptr @py, align 4
  %sub2 = sub i32 %add1, %3
  %cmp3 = icmp sgt i32 %sub, -1
  %cmp4 = icmp sgt i32 %sub2, -1
  %or.cond = select i1 %cmp3, i1 %cmp4, i1 false
  %4 = load i32, ptr @COLS, align 4
  %cmp6 = icmp slt i32 %sub, %4
  %or.cond8 = select i1 %or.cond, i1 %cmp6, i1 false
  %5 = load i32, ptr @LINES, align 4
  %cmp8 = icmp slt i32 %sub2, %5
  %or.cond9 = select i1 %or.cond8, i1 %cmp8, i1 false
  br i1 %or.cond9, label %if.then9, label %return.sink.split

if.then9:                                         ; preds = %if.then
  %6 = load ptr, ptr @stdscr, align 8
  %call = tail call i32 @wmove(ptr noundef %6, i32 noundef %sub2, i32 noundef %sub) #13
  %call10 = tail call i32 @curs_set(i32 noundef 1) #13
  %call11 = tail call zeroext i1 @qemu_console_is_graphic(ptr noundef null) #13
  br i1 %call11, label %return, label %return.sink.split

return.sink.split:                                ; preds = %entry, %if.then, %if.then9
  %.sink = phi i32 [ 2, %if.then9 ], [ 0, %if.then ], [ 0, %entry ]
  %call13 = tail call i32 @curs_set(i32 noundef %.sink) #13
  br label %return

return:                                           ; preds = %return.sink.split, %if.then9
  ret void
}